; Function Attrs: mustprogress uwtable
define internal void @_ZN3gmx12_GLOBAL__N_118serializeValueTypeIhEEvRKNS_17KeyValueTreeValueEPNS_11ISerializerE(ptr noundef nonnull readonly align 8 captures(none) dereferenceable(8) %0, ptr noundef %1) #6 {
  %3 = alloca i8, align 1
  %4 = load ptr, ptr %0, align 8, !tbaa !49
  %.not.i.i.i.i.i.i = icmp eq ptr %4, null
  br i1 %.not.i.i.i.i.i.i, label %21, label %5

5:                                                ; preds = %2
  %6 = load ptr, ptr %4, align 8, !tbaa !18
  %7 = getelementptr inbounds nuw i8, ptr %6, i64 16
  %8 = load ptr, ptr %7, align 8
  %9 = tail call noundef nonnull align 8 dereferenceable(16) ptr %8(ptr noundef nonnull align 8 dereferenceable(8) %4)
  %10 = getelementptr inbounds nuw i8, ptr %9, i64 8
  %11 = load ptr, ptr %10, align 8, !tbaa !40
  %12 = load ptr, ptr getelementptr inbounds nuw (i8, ptr @_ZTIh, i64 8), align 8, !tbaa !40
  %13 = icmp eq ptr %11, %12
  br i1 %13, label %_ZNK3gmx17KeyValueTreeValue4castIhEERKT_v.exit, label %14

14:                                               ; preds = %5
  %15 = load i8, ptr %11, align 1, !tbaa !32
  %.not.i.i.i.i.i = icmp eq i8 %15, 42
  br i1 %.not.i.i.i.i.i, label %21, label %_ZNK3gmx3Any6isTypeIhEEbv.exit.i.i.i

_ZNK3gmx3Any6isTypeIhEEbv.exit.i.i.i:             ; preds = %14
  %16 = load i8, ptr %12, align 1, !tbaa !32
  %17 = icmp eq i8 %16, 42
  %.idx.i.i.i.i.i.i = zext i1 %17 to i64
  %18 = getelementptr inbounds nuw i8, ptr %12, i64 %.idx.i.i.i.i.i.i
  %19 = tail call i32 @strcmp(ptr noundef nonnull dereferenceable(1) %11, ptr noundef nonnull dereferenceable(1) %18) #21
  %20 = icmp eq i32 %19, 0
  br i1 %20, label %_ZNK3gmx17KeyValueTreeValue4castIhEERKT_v.exit, label %21

21:                                               ; preds = %_ZNK3gmx3Any6isTypeIhEEbv.exit.i.i.i, %14, %2
  tail call void @_ZN3gmx8internal13assertHandlerEPKcS2_S2_S2_i(ptr noundef nonnull @.str.5, ptr noundef nonnull @.str.6, ptr noundef nonnull @__PRETTY_FUNCTION__._ZZNK3gmx3Any4castINS_18KeyValueTreeObjectEEERKT_vENKUlvE_clEv, ptr noundef nonnull @.str.7, i32 noundef 190) #24
  unreachable

_ZNK3gmx17KeyValueTreeValue4castIhEERKT_v.exit:   ; preds = %5, %_ZNK3gmx3Any6isTypeIhEEbv.exit.i.i.i
  %22 = load ptr, ptr %0, align 8, !tbaa !49
  %23 = getelementptr inbounds nuw i8, ptr %22, i64 8
  %24 = load i8, ptr %23, align 1, !tbaa !32
  call void @llvm.lifetime.start.p0(i64 1, ptr nonnull %3)
  store i8 %24, ptr %3, align 1, !tbaa !32
  %25 = load ptr, ptr %1, align 8, !tbaa !18
  %26 = getelementptr inbounds nuw i8, ptr %25, i64 32
  %27 = load ptr, ptr %26, align 8
  call void %27(ptr noundef nonnull align 8 dereferenceable(8) %1, ptr noundef nonnull %3)
  call void @llvm.lifetime.end.p0(i64 1, ptr nonnull %3)
  ret void
}